target datalayout = "e-m:e-p270:32:32-p271:32:32-p272:64:64-i64:64-i128:128-f80:128-n8:16:32:64-S128"
target triple = "x86_64-pc-linux-gnu"

%struct.archive_read = type { %struct.archive, ptr, i32, i64, i64, %struct.archive_read_client, [16 x %struct.archive_read_filter_bidder], ptr, i32, i64, i32, i32, [16 x %struct.archive_format_descriptor], ptr, ptr, ptr, %struct.anon }
%struct.archive = type { i32, i32, ptr, i32, ptr, i32, i32, ptr, %struct.archive_string, ptr, i32, i32, ptr, ptr, i64, i64, i64, i8, i64 }
%struct.archive_string = type { ptr, i64, i64 }
%struct.archive_read_client = type { ptr, ptr, ptr, ptr, ptr, ptr, i32, i32, i64, ptr }
%struct.archive_read_filter_bidder = type { ptr, ptr, ptr }
%struct.archive_format_descriptor = type { ptr, ptr, ptr, ptr, ptr, ptr, ptr, ptr, ptr, ptr, ptr }
%struct.anon = type { ptr, ptr, i32, ptr, ptr }
%struct.warc_s = type { i64, i64, i64, %struct.warc_strbuf_t, i32, %struct.archive_string }
%struct.warc_strbuf_t = type { i64, ptr }

; Function Attrs: nounwind uwtable
define internal i32 @_warc_cleanup(ptr noundef %0) #0 {
  %2 = alloca ptr, align 8
  %3 = alloca ptr, align 8
  store ptr %0, ptr %2, align 8, !tbaa !9
  call void @llvm.lifetime.start.p0(i64 8, ptr %3) #10
  %4 = load ptr, ptr %2, align 8, !tbaa !9
  %5 = getelementptr inbounds nuw %struct.archive_read, ptr %4, i32 0, i32 13
  %6 = load ptr, ptr %5, align 8, !tbaa !21
  %7 = getelementptr inbounds nuw %struct.archive_format_descriptor, ptr %6, i32 0, i32 0
  %8 = load ptr, ptr %7, align 8, !tbaa !35
  store ptr %8, ptr %3, align 8, !tbaa !13
  %9 = load ptr, ptr %3, align 8, !tbaa !13
  %10 = getelementptr inbounds nuw %struct.warc_s, ptr %9, i32 0, i32 3
  %11 = getelementptr inbounds nuw %struct.warc_strbuf_t, ptr %10, i32 0, i32 0
  %12 = load i64, ptr %11, align 8, !tbaa !47
  %13 = icmp ugt i64 %12, 0
  br i1 %13, label %14, label %19

14:                                               ; preds = %1
  %15 = load ptr, ptr %3, align 8, !tbaa !13
  %16 = getelementptr inbounds nuw %struct.warc_s, ptr %15, i32 0, i32 3
  %17 = getelementptr inbounds nuw %struct.warc_strbuf_t, ptr %16, i32 0, i32 1
  %18 = load ptr, ptr %17, align 8, !tbaa !48
  call void @free(ptr noundef %18) #10
  br label %19

19:                                               ; preds = %14, %1
  %20 = load ptr, ptr %3, align 8, !tbaa !13
  %21 = getelementptr inbounds nuw %struct.warc_s, ptr %20, i32 0, i32 5
  call void @archive_string_free(ptr noundef %21)
  %22 = load ptr, ptr %3, align 8, !tbaa !13
  call void @free(ptr noundef %22) #10
  %23 = load ptr, ptr %2, align 8, !tbaa !9
  %24 = getelementptr inbounds nuw %struct.archive_read, ptr %23, i32 0, i32 13
  %25 = load ptr, ptr %24, align 8, !tbaa !21
  %26 = getelementptr inbounds nuw %struct.archive_format_descriptor, ptr %25, i32 0, i32 0
  store ptr null, ptr %26, align 8, !tbaa !35
  call void @llvm.lifetime.end.p0(i64 8, ptr %3) #10
  ret i32 0
}