; Function Attrs: nounwind uwtable
define internal noundef i32 @_warc_cleanup(ptr noundef readonly captures(none) %0) #0 {
  %2 = getelementptr inbounds nuw i8, ptr %0, i64 2072
  %3 = load ptr, ptr %2, align 8, !tbaa !8
  %4 = load ptr, ptr %3, align 8, !tbaa !26
  %5 = getelementptr inbounds nuw i8, ptr %4, i64 24
  %6 = load i64, ptr %5, align 8, !tbaa !49
  %.not = icmp eq i64 %6, 0
  br i1 %.not, label %10, label %7

7:                                                ; preds = %1
  %8 = getelementptr inbounds nuw i8, ptr %4, i64 32
  %9 = load ptr, ptr %8, align 8, !tbaa !50
  tail call void @free(ptr noundef %9) #16
  br label %10

10:                                               ; preds = %7, %1
  %11 = getelementptr inbounds nuw i8, ptr %4, i64 48
  tail call void @archive_string_free(ptr noundef nonnull %11) #16
  tail call void @free(ptr noundef nonnull %4) #16
  %12 = load ptr, ptr %2, align 8, !tbaa !8
  store ptr null, ptr %12, align 8, !tbaa !26
  ret i32 0
}